#include <math.h>
#include <stdio.h>
#include <stdlib.h>
#include <string.h>


int main()
{
	double bill;
	scanf("%lf",&bill);

	char s1[500]={0};
	char s2[500]={0};
	scanf("%s",s1);
	scanf("%s",s2);

	int lens1,lens2,flag;
	flag=0;
	lens1=strlen(s1);
	lens2=strlen(s2);
	if(lens1!=lens2) 
	{
		printf("error");
		flag=1;
	}

	int i;
	if(flag==0)
	{
		for(i=0;i<lens1;i++)
		{
			if(s1[i]!='A')
			{
				if(s1[i]!='T')
				{
					if(s1[i]!='C')
					{
						if(s1[i]!='G')
						{
							printf("error");
							flag=1;
							break;
						}
					}
				}
			}
		}
	}

	if(flag==0)
	{
		for(i=0;i<lens2;i++)
		{
			if(s2[i]!='A')
			{
				if(s2[i]!='T')
				{
					if(s2[i]!='C')
					{
						if(s2[i]!='G')
						{
							printf("error");
							flag=1;
							break;
						}
					}
				}
			}
		}
	}

	double num,avg;
	num=0;
	if(flag==0)
	{
		for(i=0;i<lens1;i++)
		{
			if(s1[i]==s2[i])
			{
				num++;
			}
		}
		avg=num/(double)lens1;
		if(avg>bill)
		{
			printf("yes");
		}
		if(avg<=bill)
		{
			printf("no");
		}
	}

	return 0;
}